target datalayout = "e-m:e-p270:32:32-p271:32:32-p272:64:64-i64:64-i128:128-f80:128-n8:16:32:64-S128"
target triple = "x86_64-pc-linux-gnu"

%struct.__loadu_si128 = type { <2 x i64> }
%struct.__storeu_si128 = type { <2 x i64> }

; Function Attrs: alwaysinline nounwind uwtable
define internal void @_mm_storeu_si128(ptr noundef %0, <2 x i64> noundef %1) #3 {
  %3 = alloca ptr, align 8
  %4 = alloca <2 x i64>, align 16
  store ptr %0, ptr %3, align 8, !tbaa !3
  store <2 x i64> %1, ptr %4, align 16, !tbaa !11
  %5 = load <2 x i64>, ptr %4, align 16, !tbaa !11
  %6 = load ptr, ptr %3, align 8, !tbaa !3
  %7 = getelementptr inbounds nuw %struct.__storeu_si128, ptr %6, i32 0, i32 0
  store <2 x i64> %5, ptr %7, align 1, !tbaa !11
  ret void
}

; Function Attrs: alwaysinline nounwind uwtable
define internal <2 x i64> @_mm_sub_epi8(<2 x i64> noundef %0, <2 x i64> noundef %1) #3 {
  %3 = alloca <2 x i64>, align 16
  %4 = alloca <2 x i64>, align 16
  store <2 x i64> %0, ptr %3, align 16, !tbaa !11
  store <2 x i64> %1, ptr %4, align 16, !tbaa !11
  %5 = load <2 x i64>, ptr %3, align 16, !tbaa !11
  %6 = bitcast <2 x i64> %5 to <16 x i8>
  %7 = load <2 x i64>, ptr %4, align 16, !tbaa !11
  %8 = bitcast <2 x i64> %7 to <16 x i8>
  %9 = sub <16 x i8> %6, %8
  %10 = bitcast <16 x i8> %9 to <2 x i64>
  ret <2 x i64> %10
}

; Function Attrs: alwaysinline nounwind uwtable
define internal <2 x i64> @_mm_srli_epi16(<2 x i64> noundef %0, i32 noundef %1) #3 {
  %3 = alloca <2 x i64>, align 16
  %4 = alloca i32, align 4
  store <2 x i64> %0, ptr %3, align 16, !tbaa !11
  store i32 %1, ptr %4, align 4, !tbaa !9
  %5 = load <2 x i64>, ptr %3, align 16, !tbaa !11
  %6 = bitcast <2 x i64> %5 to <8 x i16>
  %7 = load i32, ptr %4, align 4, !tbaa !9
  %8 = call <8 x i16> @llvm.x86.sse2.psrli.w(<8 x i16> %6, i32 %7)
  %9 = bitcast <8 x i16> %8 to <2 x i64>
  ret <2 x i64> %9
}

; Function Attrs: alwaysinline nounwind uwtable
define internal <2 x i64> @_mm_loadu_si128(ptr noundef %0) #3 {
  %2 = alloca ptr, align 8
  store ptr %0, ptr %2, align 8, !tbaa !3
  %3 = load ptr, ptr %2, align 8, !tbaa !3
  %4 = getelementptr inbounds nuw %struct.__loadu_si128, ptr %3, i32 0, i32 0
  %5 = load <2 x i64>, ptr %4, align 1, !tbaa !11
  ret <2 x i64> %5
}

; Function Attrs: nounwind uwtable
define internal void @SubtractGreenFromBlueAndRed_SSE2(ptr noundef %0, i32 noundef %1) #1 {
  %3 = alloca ptr, align 8
  %4 = alloca i32, align 4
  %5 = alloca i32, align 4
  %6 = alloca <2 x i64>, align 16
  %7 = alloca <2 x i64>, align 16
  %8 = alloca <2 x i64>, align 16
  %9 = alloca <2 x i64>, align 16
  %10 = alloca <2 x i64>, align 16
  store ptr %0, ptr %3, align 8, !tbaa !7
  store i32 %1, ptr %4, align 4, !tbaa !9
  call void @llvm.lifetime.start.p0(i64 4, ptr %5) #9
  store i32 0, ptr %5, align 4, !tbaa !9
  br label %11

11:                                               ; preds = %40, %2
  %12 = load i32, ptr %5, align 4, !tbaa !9
  %13 = add nsw i32 %12, 4
  %14 = load i32, ptr %4, align 4, !tbaa !9
  %15 = icmp sle i32 %13, %14
  br i1 %15, label %16, label %43

16:                                               ; preds = %11
  call void @llvm.lifetime.start.p0(i64 16, ptr %6) #9
  %17 = load ptr, ptr %3, align 8, !tbaa !7
  %18 = load i32, ptr %5, align 4, !tbaa !9
  %19 = sext i32 %18 to i64
  %20 = getelementptr inbounds i32, ptr %17, i64 %19
  %21 = call <2 x i64> @_mm_loadu_si128(ptr noundef %20)
  store <2 x i64> %21, ptr %6, align 16, !tbaa !11
  call void @llvm.lifetime.start.p0(i64 16, ptr %7) #9
  %22 = load <2 x i64>, ptr %6, align 16, !tbaa !11
  %23 = call <2 x i64> @_mm_srli_epi16(<2 x i64> noundef %22, i32 noundef 8)
  store <2 x i64> %23, ptr %7, align 16, !tbaa !11
  call void @llvm.lifetime.start.p0(i64 16, ptr %8) #9
  %24 = load <2 x i64>, ptr %7, align 16, !tbaa !11
  %25 = bitcast <2 x i64> %24 to <8 x i16>
  %26 = shufflevector <8 x i16> %25, <8 x i16> poison, <8 x i32> <i32 0, i32 0, i32 2, i32 2, i32 4, i32 5, i32 6, i32 7>
  %27 = bitcast <8 x i16> %26 to <2 x i64>
  store <2 x i64> %27, ptr %8, align 16, !tbaa !11
  call void @llvm.lifetime.start.p0(i64 16, ptr %9) #9
  %28 = load <2 x i64>, ptr %8, align 16, !tbaa !11
  %29 = bitcast <2 x i64> %28 to <8 x i16>
  %30 = shufflevector <8 x i16> %29, <8 x i16> poison, <8 x i32> <i32 0, i32 1, i32 2, i32 3, i32 4, i32 4, i32 6, i32 6>
  %31 = bitcast <8 x i16> %30 to <2 x i64>
  store <2 x i64> %31, ptr %9, align 16, !tbaa !11
  call void @llvm.lifetime.start.p0(i64 16, ptr %10) #9
  %32 = load <2 x i64>, ptr %6, align 16, !tbaa !11
  %33 = load <2 x i64>, ptr %9, align 16, !tbaa !11
  %34 = call <2 x i64> @_mm_sub_epi8(<2 x i64> noundef %32, <2 x i64> noundef %33)
  store <2 x i64> %34, ptr %10, align 16, !tbaa !11
  %35 = load ptr, ptr %3, align 8, !tbaa !7
  %36 = load i32, ptr %5, align 4, !tbaa !9
  %37 = sext i32 %36 to i64
  %38 = getelementptr inbounds i32, ptr %35, i64 %37
  %39 = load <2 x i64>, ptr %10, align 16, !tbaa !11
  call void @_mm_storeu_si128(ptr noundef %38, <2 x i64> noundef %39)
  call void @llvm.lifetime.end.p0(i64 16, ptr %10) #9
  call void @llvm.lifetime.end.p0(i64 16, ptr %9) #9
  call void @llvm.lifetime.end.p0(i64 16, ptr %8) #9
  call void @llvm.lifetime.end.p0(i64 16, ptr %7) #9
  call void @llvm.lifetime.end.p0(i64 16, ptr %6) #9
  br label %40

40:                                               ; preds = %16
  %41 = load i32, ptr %5, align 4, !tbaa !9
  %42 = add nsw i32 %41, 4
  store i32 %42, ptr %5, align 4, !tbaa !9
  br label %11, !llvm.loop !12

43:                                               ; preds = %11
  %44 = load i32, ptr %5, align 4, !tbaa !9
  %45 = load i32, ptr %4, align 4, !tbaa !9
  %46 = icmp ne i32 %44, %45
  br i1 %46, label %47, label %55

47:                                               ; preds = %43
  %48 = load ptr, ptr %3, align 8, !tbaa !7
  %49 = load i32, ptr %5, align 4, !tbaa !9
  %50 = sext i32 %49 to i64
  %51 = getelementptr inbounds i32, ptr %48, i64 %50
  %52 = load i32, ptr %4, align 4, !tbaa !9
  %53 = load i32, ptr %5, align 4, !tbaa !9
  %54 = sub nsw i32 %52, %53
  call void @VP8LSubtractGreenFromBlueAndRed_C(ptr noundef %51, i32 noundef %54)
  br label %55

55:                                               ; preds = %47, %43
  call void @llvm.lifetime.end.p0(i64 4, ptr %5) #9
  ret void
}