; Function Attrs: nounwind uwtable
define internal void @SubtractGreenFromBlueAndRed_SSE2(ptr noundef %0, i32 noundef %1) #1 {
  %.not21 = icmp slt i32 %1, 4
  br i1 %.not21, label %._crit_edge, label %.lr.ph.preheader

.lr.ph.preheader:                                 ; preds = %2
  %3 = zext nneg i32 %1 to i64
  br label %.lr.ph

.lr.ph:                                           ; preds = %.lr.ph.preheader, %.lr.ph
  %indvars.iv23 = phi i64 [ 0, %.lr.ph.preheader ], [ %indvars.iv.next24, %.lr.ph ]
  %indvars.iv = phi i64 [ 4, %.lr.ph.preheader ], [ %indvars.iv.next, %.lr.ph ]
  %4 = getelementptr inbounds nuw i32, ptr %0, i64 %indvars.iv23
  %5 = load <2 x i64>, ptr %4, align 1, !tbaa !7
  %6 = bitcast <2 x i64> %5 to <8 x i16>
  %7 = lshr <8 x i16> %6, splat (i16 8)
  %8 = shufflevector <8 x i16> %7, <8 x i16> poison, <8 x i32> <i32 0, i32 0, i32 2, i32 2, i32 4, i32 4, i32 6, i32 6>
  %9 = bitcast <2 x i64> %5 to <16 x i8>
  %10 = bitcast <8 x i16> %8 to <16 x i8>
  %11 = sub <16 x i8> %9, %10
  store <16 x i8> %11, ptr %4, align 1, !tbaa !7
  %indvars.iv.next = add nuw nsw i64 %indvars.iv, 4
  %.not = icmp samesign ugt i64 %indvars.iv.next, %3
  %indvars.iv.next24 = add nuw nsw i64 %indvars.iv23, 4
  br i1 %.not, label %._crit_edge.loopexit, label %.lr.ph, !llvm.loop !8

._crit_edge.loopexit:                             ; preds = %.lr.ph
  %12 = trunc nuw nsw i64 %indvars.iv to i32
  br label %._crit_edge

._crit_edge:                                      ; preds = %._crit_edge.loopexit, %2
  %.0.lcssa = phi i32 [ 0, %2 ], [ %12, %._crit_edge.loopexit ]
  %.not20 = icmp eq i32 %.0.lcssa, %1
  br i1 %.not20, label %17, label %13

13:                                               ; preds = %._crit_edge
  %14 = zext nneg i32 %.0.lcssa to i64
  %15 = getelementptr inbounds nuw i32, ptr %0, i64 %14
  %16 = sub nsw i32 %1, %.0.lcssa
  tail call void @VP8LSubtractGreenFromBlueAndRed_C(ptr noundef %15, i32 noundef %16) #8
  br label %17

17:                                               ; preds = %13, %._crit_edge
  ret void
}